; Function Attrs: nounwind uwtable
define internal noundef i32 @fetch_failed_to_start(ptr readnone captures(none) %0, ptr noundef writeonly captures(none) initializes((20, 24)) %1, ptr noundef %2) #0 {
  %4 = load i32, ptr @git_gettext_enabled, align 4, !tbaa !9
  %.not4.i = icmp eq i32 %4, 0
  br i1 %.not4.i, label %_.exit, label %5

5:                                                ; preds = %3
  %6 = tail call ptr @dcgettext(ptr noundef null, ptr noundef nonnull @.str.265, i32 noundef 5) #20
  br label %_.exit

_.exit:                                           ; preds = %3, %5
  %.0.i = phi ptr [ %6, %5 ], [ @.str.265, %3 ]
  %7 = tail call i32 (ptr, ...) @error(ptr noundef %.0.i, ptr noundef %2) #20
  %8 = getelementptr inbounds nuw i8, ptr %1, i64 20
  store i32 -1, ptr %8, align 4, !tbaa !168
  ret i32 0
}